target datalayout = "e-m:e-p270:32:32-p271:32:32-p272:64:64-i64:64-i128:128-f80:128-n8:16:32:64-S128"
target triple = "x86_64-pc-linux-gnu"

; Function Attrs: nounwind uwtable
define internal void @crossfade_samples_flt(ptr noundef %0, ptr noundef %1, ptr noundef %2, i32 noundef %3, i32 noundef %4, i32 noundef %5, i32 noundef %6) #1 {
  %8 = alloca ptr, align 8
  %9 = alloca ptr, align 8
  %10 = alloca ptr, align 8
  %11 = alloca i32, align 4
  %12 = alloca i32, align 4
  %13 = alloca i32, align 4
  %14 = alloca i32, align 4
  %15 = alloca ptr, align 8
  %16 = alloca ptr, align 8
  %17 = alloca ptr, align 8
  %18 = alloca i32, align 4
  %19 = alloca i32, align 4
  %20 = alloca i32, align 4
  %21 = alloca double, align 8
  %22 = alloca double, align 8
  store ptr %0, ptr %8, align 8, !tbaa !77
  store ptr %1, ptr %9, align 8, !tbaa !77
  store ptr %2, ptr %10, align 8, !tbaa !77
  store i32 %3, ptr %11, align 4, !tbaa !30
  store i32 %4, ptr %12, align 4, !tbaa !30
  store i32 %5, ptr %13, align 4, !tbaa !30
  store i32 %6, ptr %14, align 4, !tbaa !30
  call void @llvm.lifetime.start.p0(i64 8, ptr %15) #10
  %23 = load ptr, ptr %8, align 8, !tbaa !77
  %24 = getelementptr inbounds ptr, ptr %23, i64 0
  %25 = load ptr, ptr %24, align 8, !tbaa !29
  store ptr %25, ptr %15, align 8, !tbaa !88
  call void @llvm.lifetime.start.p0(i64 8, ptr %16) #10
  %26 = load ptr, ptr %9, align 8, !tbaa !77
  %27 = getelementptr inbounds ptr, ptr %26, i64 0
  %28 = load ptr, ptr %27, align 8, !tbaa !29
  store ptr %28, ptr %16, align 8, !tbaa !88
  call void @llvm.lifetime.start.p0(i64 8, ptr %17) #10
  %29 = load ptr, ptr %10, align 8, !tbaa !77
  %30 = getelementptr inbounds ptr, ptr %29, i64 0
  %31 = load ptr, ptr %30, align 8, !tbaa !29
  store ptr %31, ptr %17, align 8, !tbaa !88
  call void @llvm.lifetime.start.p0(i64 4, ptr %18) #10
  call void @llvm.lifetime.start.p0(i64 4, ptr %19) #10
  call void @llvm.lifetime.start.p0(i64 4, ptr %20) #10
  store i32 0, ptr %20, align 4, !tbaa !30
  store i32 0, ptr %18, align 4, !tbaa !30
  br label %32

32:                                               ; preds = %84, %7
  %33 = load i32, ptr %18, align 4, !tbaa !30
  %34 = load i32, ptr %11, align 4, !tbaa !30
  %35 = icmp slt i32 %33, %34
  br i1 %35, label %36, label %87

36:                                               ; preds = %32
  call void @llvm.lifetime.start.p0(i64 8, ptr %21) #10
  %37 = load i32, ptr %13, align 4, !tbaa !30
  %38 = load i32, ptr %11, align 4, !tbaa !30
  %39 = sub nsw i32 %38, 1
  %40 = load i32, ptr %18, align 4, !tbaa !30
  %41 = sub nsw i32 %39, %40
  %42 = sext i32 %41 to i64
  %43 = load i32, ptr %11, align 4, !tbaa !30
  %44 = sext i32 %43 to i64
  %45 = call nsz double @fade_gain(i32 noundef %37, i64 noundef %42, i64 noundef %44, double noundef 0.000000e+00, double noundef 1.000000e+00)
  store double %45, ptr %21, align 8, !tbaa !78
  call void @llvm.lifetime.start.p0(i64 8, ptr %22) #10
  %46 = load i32, ptr %14, align 4, !tbaa !30
  %47 = load i32, ptr %18, align 4, !tbaa !30
  %48 = sext i32 %47 to i64
  %49 = load i32, ptr %11, align 4, !tbaa !30
  %50 = sext i32 %49 to i64
  %51 = call nsz double @fade_gain(i32 noundef %46, i64 noundef %48, i64 noundef %50, double noundef 0.000000e+00, double noundef 1.000000e+00)
  store double %51, ptr %22, align 8, !tbaa !78
  store i32 0, ptr %19, align 4, !tbaa !30
  br label %52

52:                                               ; preds = %78, %36
  %53 = load i32, ptr %19, align 4, !tbaa !30
  %54 = load i32, ptr %12, align 4, !tbaa !30
  %55 = icmp slt i32 %53, %54
  br i1 %55, label %56, label %83

56:                                               ; preds = %52
  %57 = load ptr, ptr %16, align 8, !tbaa !88
  %58 = load i32, ptr %20, align 4, !tbaa !30
  %59 = sext i32 %58 to i64
  %60 = getelementptr inbounds float, ptr %57, i64 %59
  %61 = load float, ptr %60, align 4, !tbaa !90
  %62 = fpext nsz float %61 to double
  %63 = load double, ptr %21, align 8, !tbaa !78
  %64 = load ptr, ptr %17, align 8, !tbaa !88
  %65 = load i32, ptr %20, align 4, !tbaa !30
  %66 = sext i32 %65 to i64
  %67 = getelementptr inbounds float, ptr %64, i64 %66
  %68 = load float, ptr %67, align 4, !tbaa !90
  %69 = fpext nsz float %68 to double
  %70 = load double, ptr %22, align 8, !tbaa !78
  %71 = fmul nsz double %69, %70
  %72 = call nsz double @llvm.fmuladd.f64(double %62, double %63, double %71)
  %73 = fptrunc nsz double %72 to float
  %74 = load ptr, ptr %15, align 8, !tbaa !88
  %75 = load i32, ptr %20, align 4, !tbaa !30
  %76 = sext i32 %75 to i64
  %77 = getelementptr inbounds float, ptr %74, i64 %76
  store float %73, ptr %77, align 4, !tbaa !90
  br label %78

78:                                               ; preds = %56
  %79 = load i32, ptr %19, align 4, !tbaa !30
  %80 = add nsw i32 %79, 1
  store i32 %80, ptr %19, align 4, !tbaa !30
  %81 = load i32, ptr %20, align 4, !tbaa !30
  %82 = add nsw i32 %81, 1
  store i32 %82, ptr %20, align 4, !tbaa !30
  br label %52, !llvm.loop !127

83:                                               ; preds = %52
  call void @llvm.lifetime.end.p0(i64 8, ptr %22) #10
  call void @llvm.lifetime.end.p0(i64 8, ptr %21) #10
  br label %84

84:                                               ; preds = %83
  %85 = load i32, ptr %18, align 4, !tbaa !30
  %86 = add nsw i32 %85, 1
  store i32 %86, ptr %18, align 4, !tbaa !30
  br label %32, !llvm.loop !128

87:                                               ; preds = %32
  call void @llvm.lifetime.end.p0(i64 4, ptr %20) #10
  call void @llvm.lifetime.end.p0(i64 4, ptr %19) #10
  call void @llvm.lifetime.end.p0(i64 4, ptr %18) #10
  call void @llvm.lifetime.end.p0(i64 8, ptr %17) #10
  call void @llvm.lifetime.end.p0(i64 8, ptr %16) #10
  call void @llvm.lifetime.end.p0(i64 8, ptr %15) #10
  ret void
}