; Function Attrs: nofree norecurse nosync nounwind memory(readwrite, inaccessiblemem: none) uwtable
define internal void @crossfade_samples_flt(ptr noundef readonly captures(none) %0, ptr noundef readonly captures(none) %1, ptr noundef readonly captures(none) %2, i32 noundef %3, i32 noundef %4, i32 noundef %5, i32 noundef %6) #6 {
  %8 = load ptr, ptr %0, align 8, !tbaa !71
  %9 = load ptr, ptr %1, align 8, !tbaa !71
  %10 = load ptr, ptr %2, align 8, !tbaa !71
  %11 = icmp sgt i32 %3, 0
  br i1 %11, label %.lr.ph32, label %._crit_edge33

.lr.ph32:                                         ; preds = %7
  %12 = zext nneg i32 %3 to i64
  %13 = icmp sgt i32 %4, 0
  br i1 %13, label %.lr.ph.us.preheader, label %._crit_edge33

.lr.ph.us.preheader:                              ; preds = %.lr.ph32
  %14 = zext nneg i32 %3 to i64
  br label %.lr.ph.us

.lr.ph.us:                                        ; preds = %.lr.ph.us.preheader, %._crit_edge.us
  %indvars.iv36 = phi i64 [ 0, %.lr.ph.us.preheader ], [ %indvars.iv.next37, %._crit_edge.us ]
  %.02529.us = phi i32 [ 0, %.lr.ph.us.preheader ], [ %20, %._crit_edge.us ]
  %15 = xor i64 %indvars.iv36, -1
  %16 = add nsw i64 %14, %15
  %17 = tail call nsz fastcc double @fade_gain(i32 noundef %5, i64 noundef %16, i64 noundef %12, double noundef 0.000000e+00, double noundef 1.000000e+00)
  %18 = tail call nsz fastcc double @fade_gain(i32 noundef %6, i64 noundef %indvars.iv36, i64 noundef %12, double noundef 0.000000e+00, double noundef 1.000000e+00)
  %19 = sext i32 %.02529.us to i64
  %20 = add i32 %4, %.02529.us
  br label %21

21:                                               ; preds = %.lr.ph.us, %21
  %indvars.iv = phi i64 [ %19, %.lr.ph.us ], [ %indvars.iv.next, %21 ]
  %22 = getelementptr inbounds float, ptr %9, i64 %indvars.iv
  %23 = load float, ptr %22, align 4, !tbaa !81
  %24 = fpext nsz float %23 to double
  %25 = getelementptr inbounds float, ptr %10, i64 %indvars.iv
  %26 = load float, ptr %25, align 4, !tbaa !81
  %27 = fpext nsz float %26 to double
  %28 = fmul nsz double %18, %27
  %29 = tail call nsz double @llvm.fmuladd.f64(double %24, double %17, double %28)
  %30 = fptrunc nsz double %29 to float
  %31 = getelementptr inbounds float, ptr %8, i64 %indvars.iv
  store float %30, ptr %31, align 4, !tbaa !81
  %indvars.iv.next = add nsw i64 %indvars.iv, 1
  %lftr.wideiv = trunc i64 %indvars.iv.next to i32
  %exitcond.not = icmp eq i32 %20, %lftr.wideiv
  br i1 %exitcond.not, label %._crit_edge.us, label %21, !llvm.loop !113

._crit_edge.us:                                   ; preds = %21
  %indvars.iv.next37 = add nuw nsw i64 %indvars.iv36, 1
  %exitcond39.not = icmp eq i64 %indvars.iv.next37, %12
  br i1 %exitcond39.not, label %._crit_edge33, label %.lr.ph.us, !llvm.loop !114

._crit_edge33:                                    ; preds = %._crit_edge.us, %.lr.ph32, %7
  ret void
}